target datalayout = "e-m:e-p270:32:32-p271:32:32-p272:64:64-i64:64-i128:128-f80:128-n8:16:32:64-S128"
target triple = "x86_64-unknown-linux-gnu"

%class.b3OpenCLArray.0 = type <{ ptr, i64, i64, ptr, ptr, ptr, i8, i8, [6 x i8] }>
%class.b3AlignedObjectArray = type <{ %class.b3AlignedAllocator, [3 x i8], i32, i32, [4 x i8], ptr, i8, [7 x i8] }>
%class.b3AlignedAllocator = type { i8 }
%struct.b3SortData = type { %union.anon, %union.anon.2 }
%union.anon = type { i32 }
%union.anon.2 = type { i32 }

@.str.16 = private unnamed_addr constant [17 x i8] c"b3Error[%s,%d]:\0A\00", align 1
@.str.17 = private unnamed_addr constant [146 x i8] c"generated/home/dtcxzyw/WorkSpace/Projects/compilers/llvm-opt-benchmark/bench/bullet3/bullet3/src/Bullet3OpenCL/ParallelPrimitives/b3OpenCLArray.h\00", align 1
@__clewFinish = external global ptr, align 8
@__clewEnqueueWriteBuffer = external global ptr, align 8
@.str.22 = private unnamed_addr constant [35 x i8] c"copyFromHostPointer invalid range\0A\00", align 1

; Function Attrs: mustprogress nounwind uwtable
define linkonce_odr dso_local noundef i64 @_ZNK13b3OpenCLArrayI10b3SortDataE4sizeEv(ptr noundef nonnull align 8 dereferenceable(50) %this) #4 comdat align 2 {
entry:
  %this.addr = alloca ptr, align 8
  store ptr %this, ptr %this.addr, align 8
  %this1 = load ptr, ptr %this.addr, align 8
  %m_size = getelementptr inbounds %class.b3OpenCLArray.0, ptr %this1, i32 0, i32 1
  %0 = load i64, ptr %m_size, align 8
  ret i64 %0
}

; Function Attrs: mustprogress uwtable
define linkonce_odr dso_local void @_ZN13b3OpenCLArrayI10b3SortDataE19copyFromHostPointerEPKS0_mmb(ptr noundef nonnull align 8 dereferenceable(50) %this, ptr noundef %src, i64 noundef %numElems, i64 noundef %destFirstElem, i1 noundef zeroext %waitForCompletion) #0 comdat align 2 {
entry:
  %this.addr = alloca ptr, align 8
  %src.addr = alloca ptr, align 8
  %numElems.addr = alloca i64, align 8
  %destFirstElem.addr = alloca i64, align 8
  %waitForCompletion.addr = alloca i8, align 1
  %status = alloca i32, align 4
  %sizeInBytes = alloca i64, align 8
  store ptr %this, ptr %this.addr, align 8
  store ptr %src, ptr %src.addr, align 8
  store i64 %numElems, ptr %numElems.addr, align 8
  store i64 %destFirstElem, ptr %destFirstElem.addr, align 8
  %frombool = zext i1 %waitForCompletion to i8
  store i8 %frombool, ptr %waitForCompletion.addr, align 1
  %this1 = load ptr, ptr %this.addr, align 8
  %0 = load i64, ptr %numElems.addr, align 8
  %1 = load i64, ptr %destFirstElem.addr, align 8
  %add = add i64 %0, %1
  %tobool = icmp ne i64 %add, 0
  br i1 %tobool, label %if.then, label %if.else

if.then:                                          ; preds = %entry
  store i32 0, ptr %status, align 4
  %2 = load i64, ptr %numElems.addr, align 8
  %mul = mul i64 8, %2
  store i64 %mul, ptr %sizeInBytes, align 8
  %3 = load ptr, ptr @__clewEnqueueWriteBuffer, align 8
  %m_commandQueue = getelementptr inbounds %class.b3OpenCLArray.0, ptr %this1, i32 0, i32 5
  %4 = load ptr, ptr %m_commandQueue, align 8
  %m_clBuffer = getelementptr inbounds %class.b3OpenCLArray.0, ptr %this1, i32 0, i32 3
  %5 = load ptr, ptr %m_clBuffer, align 8
  %6 = load i64, ptr %destFirstElem.addr, align 8
  %mul2 = mul i64 8, %6
  %7 = load i64, ptr %sizeInBytes, align 8
  %8 = load ptr, ptr %src.addr, align 8
  %call = call i32 %3(ptr noundef %4, ptr noundef %5, i32 noundef 0, i64 noundef %mul2, i64 noundef %7, ptr noundef %8, i32 noundef 0, ptr noundef null, ptr noundef null)
  store i32 %call, ptr %status, align 4
  %9 = load i8, ptr %waitForCompletion.addr, align 1
  %tobool3 = trunc i8 %9 to i1
  br i1 %tobool3, label %if.then4, label %if.end

if.then4:                                         ; preds = %if.then
  %10 = load ptr, ptr @__clewFinish, align 8
  %m_commandQueue5 = getelementptr inbounds %class.b3OpenCLArray.0, ptr %this1, i32 0, i32 5
  %11 = load ptr, ptr %m_commandQueue5, align 8
  %call6 = call i32 %10(ptr noundef %11)
  br label %if.end

if.end:                                           ; preds = %if.then4, %if.then
  br label %if.end7

if.else:                                          ; preds = %entry
  br label %do.body

do.body:                                          ; preds = %if.else
  call void (ptr, ...) @b3OutputErrorMessageVarArgsInternal(ptr noundef @.str.16, ptr noundef @.str.17, i32 noundef 258)
  call void (ptr, ...) @b3OutputErrorMessageVarArgsInternal(ptr noundef @.str.22)
  br label %do.end

do.end:                                           ; preds = %do.body
  br label %if.end7

if.end7:                                          ; preds = %do.end, %if.end
  ret void
}

; Function Attrs: mustprogress nounwind uwtable
define linkonce_odr dso_local noundef nonnull align 4 dereferenceable(8) ptr @_ZNK20b3AlignedObjectArrayI10b3SortDataEixEi(ptr noundef nonnull align 8 dereferenceable(25) %this, i32 noundef %n) #4 comdat align 2 {
entry:
  %this.addr = alloca ptr, align 8
  %n.addr = alloca i32, align 4
  store ptr %this, ptr %this.addr, align 8
  store i32 %n, ptr %n.addr, align 4
  %this1 = load ptr, ptr %this.addr, align 8
  %m_data = getelementptr inbounds %class.b3AlignedObjectArray, ptr %this1, i32 0, i32 5
  %0 = load ptr, ptr %m_data, align 8
  %1 = load i32, ptr %n.addr, align 4
  %idxprom = sext i32 %1 to i64
  %arrayidx = getelementptr inbounds %struct.b3SortData, ptr %0, i64 %idxprom
  ret ptr %arrayidx
}

; Function Attrs: mustprogress uwtable
define linkonce_odr dso_local noundef zeroext i1 @_ZN13b3OpenCLArrayI10b3SortDataE6resizeEmb(ptr noundef nonnull align 8 dereferenceable(50) %this, i64 noundef %newsize, i1 noundef zeroext %copyOldContents) #0 comdat align 2 {
entry:
  %this.addr = alloca ptr, align 8
  %newsize.addr = alloca i64, align 8
  %copyOldContents.addr = alloca i8, align 1
  %result = alloca i8, align 1
  %curSize = alloca i64, align 8
  store ptr %this, ptr %this.addr, align 8
  store i64 %newsize, ptr %newsize.addr, align 8
  %frombool = zext i1 %copyOldContents to i8
  store i8 %frombool, ptr %copyOldContents.addr, align 1
  %this1 = load ptr, ptr %this.addr, align 8
  store i8 1, ptr %result, align 1
  %call = call noundef i64 @_ZNK13b3OpenCLArrayI10b3SortDataE4sizeEv(ptr noundef nonnull align 8 dereferenceable(50) %this1)
  store i64 %call, ptr %curSize, align 8
  %0 = load i64, ptr %newsize.addr, align 8
  %1 = load i64, ptr %curSize, align 8
  %cmp = icmp ult i64 %0, %1
  br i1 %cmp, label %if.then, label %if.else

if.then:                                          ; preds = %entry
  br label %if.end7

if.else:                                          ; preds = %entry
  %2 = load i64, ptr %newsize.addr, align 8
  %call2 = call noundef i64 @_ZNK13b3OpenCLArrayI10b3SortDataE4sizeEv(ptr noundef nonnull align 8 dereferenceable(50) %this1)
  %cmp3 = icmp ugt i64 %2, %call2
  br i1 %cmp3, label %if.then4, label %if.end

if.then4:                                         ; preds = %if.else
  %3 = load i64, ptr %newsize.addr, align 8
  %4 = load i8, ptr %copyOldContents.addr, align 1
  %tobool = trunc i8 %4 to i1
  %call5 = call noundef zeroext i1 @_ZN13b3OpenCLArrayI10b3SortDataE7reserveEmb(ptr noundef nonnull align 8 dereferenceable(50) %this1, i64 noundef %3, i1 noundef zeroext %tobool)
  %frombool6 = zext i1 %call5 to i8
  store i8 %frombool6, ptr %result, align 1
  br label %if.end

if.end:                                           ; preds = %if.then4, %if.else
  br label %if.end7

if.end7:                                          ; preds = %if.end, %if.then
  %5 = load i8, ptr %result, align 1
  %tobool8 = trunc i8 %5 to i1
  br i1 %tobool8, label %if.then9, label %if.else10

if.then9:                                         ; preds = %if.end7
  %6 = load i64, ptr %newsize.addr, align 8
  %m_size = getelementptr inbounds %class.b3OpenCLArray.0, ptr %this1, i32 0, i32 1
  store i64 %6, ptr %m_size, align 8
  br label %if.end12

if.else10:                                        ; preds = %if.end7
  %m_size11 = getelementptr inbounds %class.b3OpenCLArray.0, ptr %this1, i32 0, i32 1
  store i64 0, ptr %m_size11, align 8
  br label %if.end12

if.end12:                                         ; preds = %if.else10, %if.then9
  %7 = load i8, ptr %result, align 1
  %tobool13 = trunc i8 %7 to i1
  ret i1 %tobool13
}

; Function Attrs: mustprogress nounwind uwtable
define linkonce_odr dso_local noundef i32 @_ZNK20b3AlignedObjectArrayI10b3SortDataE4sizeEv(ptr noundef nonnull align 8 dereferenceable(25) %this) #4 comdat align 2 {
entry:
  %this.addr = alloca ptr, align 8
  store ptr %this, ptr %this.addr, align 8
  %this1 = load ptr, ptr %this.addr, align 8
  %m_size = getelementptr inbounds %class.b3AlignedObjectArray, ptr %this1, i32 0, i32 2
  %0 = load i32, ptr %m_size, align 4
  ret i32 %0
}

; Function Attrs: mustprogress nounwind uwtable
define linkonce_odr dso_local void @_ZN20b3AlignedObjectArrayI10b3SortDataE4initEv(ptr noundef nonnull align 8 dereferenceable(25) %this) #4 comdat align 2 {
entry:
  %this.addr = alloca ptr, align 8
  store ptr %this, ptr %this.addr, align 8
  %this1 = load ptr, ptr %this.addr, align 8
  %m_ownsMemory = getelementptr inbounds %class.b3AlignedObjectArray, ptr %this1, i32 0, i32 6
  store i8 1, ptr %m_ownsMemory, align 8
  %m_data = getelementptr inbounds %class.b3AlignedObjectArray, ptr %this1, i32 0, i32 5
  store ptr null, ptr %m_data, align 8
  %m_size = getelementptr inbounds %class.b3AlignedObjectArray, ptr %this1, i32 0, i32 2
  store i32 0, ptr %m_size, align 4
  %m_capacity = getelementptr inbounds %class.b3AlignedObjectArray, ptr %this1, i32 0, i32 3
  store i32 0, ptr %m_capacity, align 8
  ret void
}

; Function Attrs: mustprogress nounwind uwtable
define linkonce_odr dso_local void @_ZN18b3AlignedAllocatorI10b3SortDataLj16EEC2Ev(ptr noundef nonnull align 1 dereferenceable(1) %this) unnamed_addr #4 comdat align 2 {
entry:
  %this.addr = alloca ptr, align 8
  store ptr %this, ptr %this.addr, align 8
  ret void
}

; Function Attrs: mustprogress uwtable
define linkonce_odr dso_local void @_ZN13b3OpenCLArrayI10b3SortDataE12copyFromHostERK20b3AlignedObjectArrayIS0_Eb(ptr noundef nonnull align 8 dereferenceable(50) %this, ptr noundef nonnull align 8 dereferenceable(25) %srcArray, i1 noundef zeroext %waitForCompletion) #0 comdat align 2 {
entry:
  %this.addr = alloca ptr, align 8
  %srcArray.addr = alloca ptr, align 8
  %waitForCompletion.addr = alloca i8, align 1
  %newSize = alloca i64, align 8
  %copyOldContents = alloca i8, align 1
  store ptr %this, ptr %this.addr, align 8
  store ptr %srcArray, ptr %srcArray.addr, align 8
  %frombool = zext i1 %waitForCompletion to i8
  store i8 %frombool, ptr %waitForCompletion.addr, align 1
  %this1 = load ptr, ptr %this.addr, align 8
  %0 = load ptr, ptr %srcArray.addr, align 8
  %call = call noundef i32 @_ZNK20b3AlignedObjectArrayI10b3SortDataE4sizeEv(ptr noundef nonnull align 8 dereferenceable(25) %0)
  %conv = sext i32 %call to i64
  store i64 %conv, ptr %newSize, align 8
  store i8 0, ptr %copyOldContents, align 1
  %1 = load i64, ptr %newSize, align 8
  %2 = load i8, ptr %copyOldContents, align 1
  %tobool = trunc i8 %2 to i1
  %call2 = call noundef zeroext i1 @_ZN13b3OpenCLArrayI10b3SortDataE6resizeEmb(ptr noundef nonnull align 8 dereferenceable(50) %this1, i64 noundef %1, i1 noundef zeroext %tobool)
  %3 = load i64, ptr %newSize, align 8
  %tobool3 = icmp ne i64 %3, 0
  br i1 %tobool3, label %if.then, label %if.end

if.then:                                          ; preds = %entry
  %4 = load ptr, ptr %srcArray.addr, align 8
  %call4 = call noundef nonnull align 4 dereferenceable(8) ptr @_ZNK20b3AlignedObjectArrayI10b3SortDataEixEi(ptr noundef nonnull align 8 dereferenceable(25) %4, i32 noundef 0)
  %5 = load i64, ptr %newSize, align 8
  %6 = load i8, ptr %waitForCompletion.addr, align 1
  %tobool5 = trunc i8 %6 to i1
  call void @_ZN13b3OpenCLArrayI10b3SortDataE19copyFromHostPointerEPKS0_mmb(ptr noundef nonnull align 8 dereferenceable(50) %this1, ptr noundef %call4, i64 noundef %5, i64 noundef 0, i1 noundef zeroext %tobool5)
  br label %if.end

if.end:                                           ; preds = %if.then, %entry
  ret void
}

; Function Attrs: mustprogress uwtable
define linkonce_odr dso_local void @_ZN20b3AlignedObjectArrayI10b3SortDataEC2Ev(ptr noundef nonnull align 8 dereferenceable(25) %this) unnamed_addr #0 comdat align 2 {
entry:
  %this.addr = alloca ptr, align 8
  store ptr %this, ptr %this.addr, align 8
  %this1 = load ptr, ptr %this.addr, align 8
  %m_allocator = getelementptr inbounds %class.b3AlignedObjectArray, ptr %this1, i32 0, i32 0
  call void @_ZN18b3AlignedAllocatorI10b3SortDataLj16EEC2Ev(ptr noundef nonnull align 1 dereferenceable(1) %m_allocator)
  call void @_ZN20b3AlignedObjectArrayI10b3SortDataE4initEv(ptr noundef nonnull align 8 dereferenceable(25) %this1)
  ret void
}

; Function Attrs: mustprogress uwtable
define dso_local void @_ZN15b3RadixSort32CL11executeHostER13b3OpenCLArrayI10b3SortDataEi(ptr noundef nonnull align 8 dereferenceable(128) %this, ptr noundef nonnull align 8 dereferenceable(50) %keyValuesInOut, i32 noundef %sortBits) #0 align 2 personality ptr @__gxx_personality_v0 {
entry:
  %this.addr = alloca ptr, align 8
  %keyValuesInOut.addr = alloca ptr, align 8
  %sortBits.addr = alloca i32, align 4
  %inout = alloca %class.b3AlignedObjectArray, align 8
  %exn.slot = alloca ptr, align 8
  %ehselector.slot = alloca i32, align 4
  store ptr %this, ptr %this.addr, align 8
  store ptr %keyValuesInOut, ptr %keyValuesInOut.addr, align 8
  store i32 %sortBits, ptr %sortBits.addr, align 4
  %this1 = load ptr, ptr %this.addr, align 8
  call void @_ZN20b3AlignedObjectArrayI10b3SortDataEC2Ev(ptr noundef nonnull align 8 dereferenceable(25) %inout)
  %0 = load ptr, ptr %keyValuesInOut.addr, align 8
  invoke void @_ZNK13b3OpenCLArrayI10b3SortDataE10copyToHostER20b3AlignedObjectArrayIS0_Eb(ptr noundef nonnull align 8 dereferenceable(50) %0, ptr noundef nonnull align 8 dereferenceable(25) %inout, i1 noundef zeroext true)
          to label %invoke.cont unwind label %lpad

invoke.cont:                                      ; preds = %entry
  %1 = load i32, ptr %sortBits.addr, align 4
  invoke void @_ZN15b3RadixSort32CL11executeHostER20b3AlignedObjectArrayI10b3SortDataEi(ptr noundef nonnull align 8 dereferenceable(128) %this1, ptr noundef nonnull align 8 dereferenceable(25) %inout, i32 noundef %1)
          to label %invoke.cont2 unwind label %lpad

invoke.cont2:                                     ; preds = %invoke.cont
  %2 = load ptr, ptr %keyValuesInOut.addr, align 8
  invoke void @_ZN13b3OpenCLArrayI10b3SortDataE12copyFromHostERK20b3AlignedObjectArrayIS0_Eb(ptr noundef nonnull align 8 dereferenceable(50) %2, ptr noundef nonnull align 8 dereferenceable(25) %inout, i1 noundef zeroext true)
          to label %invoke.cont3 unwind label %lpad

invoke.cont3:                                     ; preds = %invoke.cont2
  call void @_ZN20b3AlignedObjectArrayI10b3SortDataED2Ev(ptr noundef nonnull align 8 dereferenceable(25) %inout) #11
  ret void

lpad:                                             ; preds = %invoke.cont2, %invoke.cont, %entry
  %3 = landingpad { ptr, i32 }
          cleanup
  %4 = extractvalue { ptr, i32 } %3, 0
  store ptr %4, ptr %exn.slot, align 8
  %5 = extractvalue { ptr, i32 } %3, 1
  store i32 %5, ptr %ehselector.slot, align 4
  call void @_ZN20b3AlignedObjectArrayI10b3SortDataED2Ev(ptr noundef nonnull align 8 dereferenceable(25) %inout) #11
  br label %eh.resume

eh.resume:                                        ; preds = %lpad
  %exn = load ptr, ptr %exn.slot, align 8
  %sel = load i32, ptr %ehselector.slot, align 4
  %lpad.val = insertvalue { ptr, i32 } poison, ptr %exn, 0
  %lpad.val4 = insertvalue { ptr, i32 } %lpad.val, i32 %sel, 1
  resume { ptr, i32 } %lpad.val4
}