; Function Attrs: mustprogress uwtable
define dso_local void @_ZN15b3RadixSort32CL11executeHostER13b3OpenCLArrayI10b3SortDataEi(ptr nocapture noundef nonnull readnone align 8 dereferenceable(128) %this, ptr noundef nonnull align 8 dereferenceable(50) %keyValuesInOut, i32 noundef %sortBits) local_unnamed_addr #0 align 2 personality ptr @__gxx_personality_v0 {
entry:
  %inout = alloca %class.b3AlignedObjectArray, align 8
  %m_ownsMemory.i.i = getelementptr inbounds i8, ptr %inout, i64 24
  store i8 1, ptr %m_ownsMemory.i.i, align 8
  %m_data.i.i = getelementptr inbounds i8, ptr %inout, i64 16
  store ptr null, ptr %m_data.i.i, align 8
  %m_size.i.i = getelementptr inbounds i8, ptr %inout, i64 4
  store i32 0, ptr %m_size.i.i, align 4
  %m_capacity.i.i = getelementptr inbounds i8, ptr %inout, i64 8
  store i32 0, ptr %m_capacity.i.i, align 8
  invoke void @_ZNK13b3OpenCLArrayI10b3SortDataE10copyToHostER20b3AlignedObjectArrayIS0_Eb(ptr noundef nonnull align 8 dereferenceable(50) %keyValuesInOut, ptr noundef nonnull align 8 dereferenceable(25) %inout, i1 noundef zeroext true)
          to label %invoke.cont unwind label %lpad

invoke.cont:                                      ; preds = %entry
  invoke void @_ZN15b3RadixSort32CL11executeHostER20b3AlignedObjectArrayI10b3SortDataEi(ptr nonnull align 8 poison, ptr noundef nonnull align 8 dereferenceable(25) %inout, i32 noundef %sortBits)
          to label %invoke.cont2 unwind label %lpad

invoke.cont2:                                     ; preds = %invoke.cont
  %0 = load i32, ptr %m_size.i.i, align 4
  %conv.i = sext i32 %0 to i64
  %m_size.i.i.i = getelementptr inbounds i8, ptr %keyValuesInOut, i64 8
  %1 = load i64, ptr %m_size.i.i.i, align 8
  %cmp3.i.i = icmp ult i64 %1, %conv.i
  br i1 %cmp3.i.i, label %if.end7.i.i, label %_ZN13b3OpenCLArrayI10b3SortDataE6resizeEmb.exit.i

if.end7.i.i:                                      ; preds = %invoke.cont2
  %call5.i.i4 = invoke noundef zeroext i1 @_ZN13b3OpenCLArrayI10b3SortDataE7reserveEmb(ptr noundef nonnull align 8 dereferenceable(50) %keyValuesInOut, i64 noundef %conv.i, i1 noundef zeroext false)
          to label %call5.i.i.noexc unwind label %lpad

call5.i.i.noexc:                                  ; preds = %if.end7.i.i
  %spec.select.i.i = select i1 %call5.i.i4, i64 %conv.i, i64 0
  br label %_ZN13b3OpenCLArrayI10b3SortDataE6resizeEmb.exit.i

_ZN13b3OpenCLArrayI10b3SortDataE6resizeEmb.exit.i: ; preds = %call5.i.i.noexc, %invoke.cont2
  %storemerge.i.i = phi i64 [ %conv.i, %invoke.cont2 ], [ %spec.select.i.i, %call5.i.i.noexc ]
  store i64 %storemerge.i.i, ptr %m_size.i.i.i, align 8
  %tobool3.not.i = icmp eq i32 %0, 0
  br i1 %tobool3.not.i, label %invoke.cont3, label %if.then.i.i

if.then.i.i:                                      ; preds = %_ZN13b3OpenCLArrayI10b3SortDataE6resizeEmb.exit.i
  %2 = load ptr, ptr %m_data.i.i, align 8
  %mul.i.i = shl nsw i64 %conv.i, 3
  %3 = load ptr, ptr @__clewEnqueueWriteBuffer, align 8
  %m_commandQueue.i.i = getelementptr inbounds i8, ptr %keyValuesInOut, i64 40
  %4 = load ptr, ptr %m_commandQueue.i.i, align 8
  %m_clBuffer.i.i = getelementptr inbounds i8, ptr %keyValuesInOut, i64 24
  %5 = load ptr, ptr %m_clBuffer.i.i, align 8
  %call.i.i5 = invoke i32 %3(ptr noundef %4, ptr noundef %5, i32 noundef 0, i64 noundef 0, i64 noundef %mul.i.i, ptr noundef %2, i32 noundef 0, ptr noundef null, ptr noundef null)
          to label %call.i.i.noexc unwind label %lpad

call.i.i.noexc:                                   ; preds = %if.then.i.i
  %6 = load ptr, ptr @__clewFinish, align 8
  %7 = load ptr, ptr %m_commandQueue.i.i, align 8
  %call6.i.i6 = invoke i32 %6(ptr noundef %7)
          to label %invoke.cont3 unwind label %lpad

invoke.cont3:                                     ; preds = %_ZN13b3OpenCLArrayI10b3SortDataE6resizeEmb.exit.i, %call.i.i.noexc
  %8 = load ptr, ptr %m_data.i.i, align 8
  %tobool.not.i.i.i = icmp eq ptr %8, null
  br i1 %tobool.not.i.i.i, label %_ZN20b3AlignedObjectArrayI10b3SortDataED2Ev.exit, label %if.then.i.i.i

if.then.i.i.i:                                    ; preds = %invoke.cont3
  %9 = load i8, ptr %m_ownsMemory.i.i, align 8
  %10 = and i8 %9, 1
  %tobool2.not.i.i.i = icmp eq i8 %10, 0
  br i1 %tobool2.not.i.i.i, label %_ZN20b3AlignedObjectArrayI10b3SortDataED2Ev.exit, label %if.then3.i.i.i

if.then3.i.i.i:                                   ; preds = %if.then.i.i.i
  invoke void @_Z21b3AlignedFreeInternalPv(ptr noundef nonnull %8)
          to label %_ZN20b3AlignedObjectArrayI10b3SortDataED2Ev.exit unwind label %terminate.lpad.i

terminate.lpad.i:                                 ; preds = %if.then3.i.i.i
  %11 = landingpad { ptr, i32 }
          catch ptr null
  %12 = extractvalue { ptr, i32 } %11, 0
  call void @__clang_call_terminate(ptr %12) #16
  unreachable

_ZN20b3AlignedObjectArrayI10b3SortDataED2Ev.exit: ; preds = %invoke.cont3, %if.then.i.i.i, %if.then3.i.i.i
  ret void

lpad:                                             ; preds = %call.i.i.noexc, %if.then.i.i, %if.end7.i.i, %invoke.cont, %entry
  %13 = landingpad { ptr, i32 }
          cleanup
  call void @_ZN20b3AlignedObjectArrayI10b3SortDataED2Ev(ptr noundef nonnull align 8 dereferenceable(25) %inout) #15
  resume { ptr, i32 } %13
}